libatf-c++.so.2 libatf #MINVER#
 Program_Name@Base 0.21
 _Z18collection_to_argvISt6vectorISsSaISsEEEN3atf10auto_arrayIPKcEERKT_@Base 0.21
 _ZN3atf11application11usage_errorC1EPKcz@Base 0.21
 _ZN3atf11application11usage_errorC2EPKcz@Base 0.21
 _ZN3atf11application11usage_errorD0Ev@Base 0.21
 _ZN3atf11application11usage_errorD1Ev@Base 0.21
 _ZN3atf11application11usage_errorD2Ev@Base 0.21
 _ZN3atf11application3app14process_optionEiPKc@Base 0.21
 _ZN3atf11application3app15process_optionsEv@Base 0.21
 _ZN3atf11application3app3runEiPKPc@Base 0.21
 _ZN3atf11application3app6initedEv@Base 0.21
 _ZN3atf11application3app7optionsEv@Base 0.21
 _ZN3atf11application3appC1ERKSsS3_@Base 0.21
 _ZN3atf11application3appC2ERKSsS3_@Base 0.21
 _ZN3atf11application3appD0Ev@Base 0.21
 _ZN3atf11application3appD1Ev@Base 0.21
 _ZN3atf11application3appD2Ev@Base 0.21
 _ZN3atf11application6optionC1EcRKSsS3_@Base 0.21
 _ZN3atf11application6optionC2EcRKSsS3_@Base 0.21
 _ZN3atf12system_errorC1ERKSsS2_i@Base 0.21
 _ZN3atf12system_errorC2ERKSsS2_i@Base 0.21
 _ZN3atf12system_errorD0Ev@Base 0.21
 _ZN3atf12system_errorD1Ev@Base 0.21
 _ZN3atf12system_errorD2Ev@Base 0.21
 _ZN3atf15throw_atf_errorEP9atf_error@Base 0.21
 _ZN3atf2fs13is_executableERKNS0_4pathE@Base 0.21
 _ZN3atf2fs17have_prog_in_pathERKSs@Base 0.21
 _ZN3atf2fs4pathC1EPK11atf_fs_path@Base 0.21
 _ZN3atf2fs4pathC1ERKS1_@Base 0.21
 _ZN3atf2fs4pathC1ERKSs@Base 0.21
 _ZN3atf2fs4pathC2EPK11atf_fs_path@Base 0.21
 _ZN3atf2fs4pathC2ERKS1_@Base 0.21
 _ZN3atf2fs4pathC2ERKSs@Base 0.21
 _ZN3atf2fs4pathD1Ev@Base 0.21
 _ZN3atf2fs4pathD2Ev@Base 0.21
 _ZN3atf2fs4pathaSERKS1_@Base 0.21
 _ZN3atf2fs5rmdirERKNS0_4pathE@Base 0.21
 _ZN3atf2fs6existsERKNS0_4pathE@Base 0.21
 _ZN3atf2fs6removeERKNS0_4pathE@Base 0.21
 _ZN3atf2fs9directoryC1ERKNS0_4pathE@Base 0.21
 _ZN3atf2fs9directoryC2ERKNS0_4pathE@Base 0.21
 _ZN3atf2fs9file_info8blk_typeE@Base 0.21
 _ZN3atf2fs9file_info8chr_typeE@Base 0.21
 _ZN3atf2fs9file_info8dir_typeE@Base 0.21
 _ZN3atf2fs9file_info8lnk_typeE@Base 0.21
 _ZN3atf2fs9file_info8reg_typeE@Base 0.21
 _ZN3atf2fs9file_info8wht_typeE@Base 0.21
 _ZN3atf2fs9file_info9fifo_typeE@Base 0.21
 _ZN3atf2fs9file_info9sock_typeE@Base 0.21
 _ZN3atf2fs9file_infoC1ERKNS0_4pathE@Base 0.21
 _ZN3atf2fs9file_infoC1ERKS1_@Base 0.21
 _ZN3atf2fs9file_infoC2ERKNS0_4pathE@Base 0.21
 _ZN3atf2fs9file_infoC2ERKS1_@Base 0.21
 _ZN3atf2fs9file_infoD1Ev@Base 0.21
 _ZN3atf2fs9file_infoD2Ev@Base 0.21
 _ZN3atf3env3getERKSs@Base 0.21
 _ZN3atf3env3getERKSsS2_@Base 0.21
 _ZN3atf3env3hasERKSs@Base 0.21
 _ZN3atf3env3setERKSsS2_@Base 0.21
 _ZN3atf3env5unsetERKSs@Base 0.21
 _ZN3atf4text4trimERKSs@Base 0.21
 _ZN3atf4text5matchERKSsS2_@Base 0.21
 _ZN3atf4text5splitERKSsS2_@Base 0.21
 _ZN3atf4text7to_boolERKSs@Base 0.21
 _ZN3atf4text7to_typeIlEET_RKSs@Base 0.21
 _ZN3atf4text8to_bytesESs@Base 0.21
 _ZN3atf4text8to_lowerERKSs@Base 0.21
 _ZN3atf4text9duplicateEPKc@Base 0.21
 _ZN3atf5build3c_oERKSsS2_RKNS_7process10argv_arrayE@Base 0.21
 _ZN3atf5build3cppERKSsS2_RKNS_7process10argv_arrayE@Base 0.21
 _ZN3atf5build5cxx_oERKSsS2_RKNS_7process10argv_arrayE@Base 0.21
 _ZN3atf5check11build_cxx_oERKSsS2_RKNS_7process10argv_arrayE@Base 0.21
 _ZN3atf5check12check_resultC1EPK16atf_check_result@Base 0.21
 _ZN3atf5check12check_resultC2EPK16atf_check_result@Base 0.21
 _ZN3atf5check12check_resultD1Ev@Base 0.21
 _ZN3atf5check12check_resultD2Ev@Base 0.21
 _ZN3atf5check4execERKNS_7process10argv_arrayE@Base 0.21
 _ZN3atf5check9build_c_oERKSsS2_RKNS_7process10argv_arrayE@Base 0.21
 _ZN3atf5check9build_cppERKSsS2_RKNS_7process10argv_arrayE@Base 0.21
 _ZN3atf5tests2tc10set_md_varERKSsS3_@Base 0.21
 _ZN3atf5tests2tc11check_errnoEPKciiS3_b@Base 0.21
 _ZN3atf5tests2tc11expect_exitEiRKSs@Base 0.21
 _ZN3atf5tests2tc11expect_failERKSs@Base 0.21
 _ZN3atf5tests2tc11expect_passEv@Base 0.21
 _ZN3atf5tests2tc12expect_deathERKSs@Base 0.21
 _ZN3atf5tests2tc13expect_signalEiRKSs@Base 0.21
 _ZN3atf5tests2tc13fail_nonfatalERKSs@Base 0.21
 _ZN3atf5tests2tc13require_errnoEPKciiS3_b@Base 0.21
 _ZN3atf5tests2tc14expect_timeoutERKSs@Base 0.21
 _ZN3atf5tests2tc4failERKSs@Base 0.21
 _ZN3atf5tests2tc4headEv@Base 0.21
 _ZN3atf5tests2tc4initERKSt3mapISsSsSt4lessISsESaISt4pairIKSsSsEEE@Base 0.21
 _ZN3atf5tests2tc4passEv@Base 0.21
 _ZN3atf5tests2tc4skipERKSs@Base 0.21
 _ZN3atf5tests2tcC1ERKSsb@Base 0.21
 _ZN3atf5tests2tcC2ERKSsb@Base 0.21
 _ZN3atf5tests2tcD0Ev@Base 0.21
 _ZN3atf5tests2tcD1Ev@Base 0.21
 _ZN3atf5tests2tcD2Ev@Base 0.21
 _ZN3atf5tests6detail13atf_tp_writer12tc_meta_dataERKSsS4_@Base 0.21
 _ZN3atf5tests6detail13atf_tp_writer6end_tcEv@Base 0.21
 _ZN3atf5tests6detail13atf_tp_writer8start_tcERKSs@Base 0.21
 _ZN3atf5tests6detail13atf_tp_writerC1ERSo@Base 0.21
 _ZN3atf5tests6detail13atf_tp_writerC2ERSo@Base 0.21
 _ZN3atf5tests6detail5matchERKSsS3_@Base 0.21
 _ZN3atf5tests6run_tpEiPPcPFvRSt6vectorIPNS0_2tcESaIS5_EEE@Base 0.21
 _ZN3atf5tests7tc_impl12wrap_cleanupEPK6atf_tc@Base 0.21
 _ZN3atf5tests7tc_impl9wrap_bodyEPK6atf_tc@Base 0.21
 _ZN3atf5tests7tc_impl9wrap_headEP6atf_tc@Base 0.21
 _ZN3atf5utils11create_fileERKSsS2_@Base 0.21
 _ZN3atf5utils11file_existsERKSs@Base 0.21
 _ZN3atf5utils11grep_stringERKSsS2_@Base 0.21
 _ZN3atf5utils12compare_fileERKSsS2_@Base 0.21
 _ZN3atf5utils4forkEv@Base 0.21
 _ZN3atf5utils4waitEiiRKSsS2_@Base 0.21
 _ZN3atf5utils8cat_fileERKSsS2_@Base 0.21
 _ZN3atf5utils8redirectEiRKSs@Base 0.21
 _ZN3atf5utils9copy_fileERKSsS2_@Base 0.21
 _ZN3atf5utils9grep_fileERKSsS2_@Base 0.21
 _ZN3atf7process10argv_array19ctor_init_exec_argvEv@Base 0.21
 _ZN3atf7process10argv_arrayC1EPKPKc@Base 0.21
 _ZN3atf7process10argv_arrayC1EPKcz@Base 0.21
 _ZN3atf7process10argv_arrayC1ERKS1_@Base 0.21
 _ZN3atf7process10argv_arrayC1Ev@Base 0.21
 _ZN3atf7process10argv_arrayC2EPKPKc@Base 0.21
 _ZN3atf7process10argv_arrayC2EPKcz@Base 0.21
 _ZN3atf7process10argv_arrayC2ERKS1_@Base 0.21
 _ZN3atf7process10argv_arrayC2Ev@Base 0.21
 _ZN3atf7process10argv_arrayD1Ev@Base 0.21
 _ZN3atf7process10argv_arrayD2Ev@Base 0.21
 _ZN3atf7process10argv_arrayaSERKS1_@Base 0.21
 _ZN3atf7process12basic_streamC1Ev@Base 0.21
 _ZN3atf7process12basic_streamC2Ev@Base 0.21
 _ZN3atf7process12basic_streamD1Ev@Base 0.21
 _ZN3atf7process12basic_streamD2Ev@Base 0.21
 _ZN3atf7process14stream_captureC1Ev@Base 0.21
 _ZN3atf7process14stream_captureC2Ev@Base 0.21
 _ZN3atf7process14stream_connectC1Eii@Base 0.21
 _ZN3atf7process14stream_connectC2Eii@Base 0.21
 _ZN3atf7process14stream_inheritC1Ev@Base 0.21
 _ZN3atf7process14stream_inheritC2Ev@Base 0.21
 _ZN3atf7process18stream_redirect_fdC1Ei@Base 0.21
 _ZN3atf7process18stream_redirect_fdC2Ei@Base 0.21
 _ZN3atf7process20stream_redirect_pathC1ERKNS_2fs4pathE@Base 0.21
 _ZN3atf7process20stream_redirect_pathC2ERKNS_2fs4pathE@Base 0.21
 _ZN3atf7process5child4waitEv@Base 0.21
 _ZN3atf7process5child9stderr_fdEv@Base 0.21
 _ZN3atf7process5child9stdout_fdEv@Base 0.21
 _ZN3atf7process5childC1ER17atf_process_child@Base 0.21
 _ZN3atf7process5childC2ER17atf_process_child@Base 0.21
 _ZN3atf7process5childD1Ev@Base 0.21
 _ZN3atf7process5childD2Ev@Base 0.21
 _ZN3atf7process6detail13flush_streamsEv@Base 0.21
 _ZN3atf7process6statusC1ER18atf_process_status@Base 0.21
 _ZN3atf7process6statusC2ER18atf_process_status@Base 0.21
 _ZN3atf7process6statusD1Ev@Base 0.21
 _ZN3atf7process6statusD2Ev@Base 0.21
 _ZNK3atf11application11usage_error4whatEv@Base 0.21
 _ZNK3atf11application3app13specific_argsEv@Base 0.21
 _ZNK3atf11application3app16specific_optionsEv@Base 0.21
 _ZNK3atf11application6optionltERKS1_@Base 0.21
 _ZNK3atf12system_error4codeEv@Base 0.21
 _ZNK3atf12system_error4whatEv@Base 0.21
 _ZNK3atf2fs4path11branch_pathEv@Base 0.21
 _ZNK3atf2fs4path11is_absoluteEv@Base 0.21
 _ZNK3atf2fs4path11to_absoluteEv@Base 0.21
 _ZNK3atf2fs4path3strEv@Base 0.21
 _ZNK3atf2fs4path5c_strEv@Base 0.21
 _ZNK3atf2fs4path6c_pathEv@Base 0.21
 _ZNK3atf2fs4path7is_rootEv@Base 0.21
 _ZNK3atf2fs4path9leaf_nameEv@Base 0.21
 _ZNK3atf2fs4pathdvERKS1_@Base 0.21
 _ZNK3atf2fs4pathdvERKSs@Base 0.21
 _ZNK3atf2fs4patheqERKS1_@Base 0.21
 _ZNK3atf2fs4pathltERKS1_@Base 0.21
 _ZNK3atf2fs4pathneERKS1_@Base 0.21
 _ZNK3atf2fs9directory5namesEv@Base 0.21
 _ZNK3atf2fs9file_info10get_deviceEv@Base 0.21
 _ZNK3atf2fs9file_info17is_group_readableEv@Base 0.21
 _ZNK3atf2fs9file_info17is_group_writableEv@Base 0.21
 _ZNK3atf2fs9file_info17is_other_readableEv@Base 0.21
 _ZNK3atf2fs9file_info17is_other_writableEv@Base 0.21
 _ZNK3atf2fs9file_info17is_owner_readableEv@Base 0.21
 _ZNK3atf2fs9file_info17is_owner_writableEv@Base 0.21
 _ZNK3atf2fs9file_info19is_group_executableEv@Base 0.21
 _ZNK3atf2fs9file_info19is_other_executableEv@Base 0.21
 _ZNK3atf2fs9file_info19is_owner_executableEv@Base 0.21
 _ZNK3atf2fs9file_info8get_modeEv@Base 0.21
 _ZNK3atf2fs9file_info8get_sizeEv@Base 0.21
 _ZNK3atf2fs9file_info8get_typeEv@Base 0.21
 _ZNK3atf2fs9file_info9get_inodeEv@Base 0.21
 _ZNK3atf5check12check_result11stderr_pathEv@Base 0.21
 _ZNK3atf5check12check_result11stdout_pathEv@Base 0.21
 _ZNK3atf5check12check_result6exitedEv@Base 0.21
 _ZNK3atf5check12check_result7termsigEv@Base 0.21
 _ZNK3atf5check12check_result8exitcodeEv@Base 0.21
 _ZNK3atf5check12check_result8signaledEv@Base 0.21
 _ZNK3atf5tests2tc10get_md_varERKSs@Base 0.21
 _ZNK3atf5tests2tc10has_md_varERKSs@Base 0.21
 _ZNK3atf5tests2tc11get_md_varsEv@Base 0.21
 _ZNK3atf5tests2tc11run_cleanupEv@Base 0.21
 _ZNK3atf5tests2tc12require_progERKSs@Base 0.21
 _ZNK3atf5tests2tc14get_config_varERKSs@Base 0.21
 _ZNK3atf5tests2tc14get_config_varERKSsS3_@Base 0.21
 _ZNK3atf5tests2tc14has_config_varERKSs@Base 0.21
 _ZNK3atf5tests2tc3runERKSs@Base 0.21
 _ZNK3atf5tests2tc7cleanupEv@Base 0.21
 _ZNK3atf7process10argv_array3endEv@Base 0.21
 _ZNK3atf7process10argv_array4sizeEv@Base 0.21
 _ZNK3atf7process10argv_array5beginEv@Base 0.21
 _ZNK3atf7process10argv_array9exec_argvEv@Base 0.21
 _ZNK3atf7process10argv_arrayixEi@Base 0.21
 _ZNK3atf7process12basic_stream6get_sbEv@Base 0.21
 _ZNK3atf7process5child3pidEv@Base 0.21
 _ZNK3atf7process6status10exitstatusEv@Base 0.21
 _ZNK3atf7process6status6exitedEv@Base 0.21
 _ZNK3atf7process6status7termsigEv@Base 0.21
 _ZNK3atf7process6status8coredumpEv@Base 0.21
 _ZNK3atf7process6status8signaledEv@Base 0.21
 _ZNSt15basic_stringbufIcSt11char_traitsIcESaIcEED0Ev@Base 0.21
 _ZNSt15basic_stringbufIcSt11char_traitsIcESaIcEED1Ev@Base 0.21
 _ZNSt15basic_stringbufIcSt11char_traitsIcESaIcEED2Ev@Base 0.21
 _ZNSt3mapIP6atf_tcPN3atf5tests2tcESt4lessIS1_ESaISt4pairIKS1_S5_EEED1Ev@Base 0.21
 _ZNSt3mapIP6atf_tcPN3atf5tests2tcESt4lessIS1_ESaISt4pairIKS1_S5_EEED2Ev@Base 0.21
 _ZNSt3mapIPK6atf_tcPKN3atf5tests2tcESt4lessIS2_ESaISt4pairIKS2_S7_EEED1Ev@Base 0.21
 _ZNSt3mapIPK6atf_tcPKN3atf5tests2tcESt4lessIS2_ESaISt4pairIKS2_S7_EEED2Ev@Base 0.21
 _ZNSt4pairIKSsSsED1Ev@Base 0.21
 _ZNSt4pairIKSsSsED2Ev@Base 0.21
 _ZNSt6vectorISsSaISsEE13_M_insert_auxEN9__gnu_cxx17__normal_iteratorIPSsS1_EERKSs@Base 0.21
 _ZNSt6vectorISsSaISsEED1Ev@Base 0.21
 _ZNSt6vectorISsSaISsEED2Ev@Base 0.21
 _ZNSt6vectorISsSaISsEEaSERKS1_@Base 0.21
 _ZNSt8_Rb_treeIN3atf11application6optionES2_St9_IdentityIS2_ESt4lessIS2_ESaIS2_EE8_M_eraseEPSt13_Rb_tree_nodeIS2_E@Base 0.21
 _ZNSt8_Rb_treeIP6atf_tcSt4pairIKS1_PN3atf5tests2tcEESt10_Select1stIS8_ESt4lessIS1_ESaIS8_EE24_M_get_insert_unique_posERS3_@Base 0.21
 _ZNSt8_Rb_treeIP6atf_tcSt4pairIKS1_PN3atf5tests2tcEESt10_Select1stIS8_ESt4lessIS1_ESaIS8_EE29_M_get_insert_hint_unique_posESt23_Rb_tree_const_iteratorIS8_ERS3_@Base 0.21
 _ZNSt8_Rb_treeIP6atf_tcSt4pairIKS1_PN3atf5tests2tcEESt10_Select1stIS8_ESt4lessIS1_ESaIS8_EE8_M_eraseEPSt13_Rb_tree_nodeIS8_E@Base 0.21
 _ZNSt8_Rb_treeIPK6atf_tcSt4pairIKS2_PKN3atf5tests2tcEESt10_Select1stISA_ESt4lessIS2_ESaISA_EE24_M_get_insert_unique_posERS4_@Base 0.21
 _ZNSt8_Rb_treeIPK6atf_tcSt4pairIKS2_PKN3atf5tests2tcEESt10_Select1stISA_ESt4lessIS2_ESaISA_EE29_M_get_insert_hint_unique_posESt23_Rb_tree_const_iteratorISA_ERS4_@Base 0.21
 _ZNSt8_Rb_treeIPK6atf_tcSt4pairIKS2_PKN3atf5tests2tcEESt10_Select1stISA_ESt4lessIS2_ESaISA_EE4findERS4_@Base 0.21
 _ZNSt8_Rb_treeIPK6atf_tcSt4pairIKS2_PKN3atf5tests2tcEESt10_Select1stISA_ESt4lessIS2_ESaISA_EE8_M_eraseEPSt13_Rb_tree_nodeISA_E@Base 0.21
 _ZNSt8_Rb_treeISsSsSt9_IdentityISsESt4lessISsESaISsEE8_M_eraseEPSt13_Rb_tree_nodeISsE@Base 0.21
 _ZNSt8_Rb_treeISsSt4pairIKSsN3atf2fs9file_infoEESt10_Select1stIS5_ESt4lessISsESaIS5_EE10_M_insert_EPSt18_Rb_tree_node_baseSD_RKS5_@Base 0.21
 _ZNSt8_Rb_treeISsSt4pairIKSsN3atf2fs9file_infoEESt10_Select1stIS5_ESt4lessISsESaIS5_EE8_M_eraseEPSt13_Rb_tree_nodeIS5_E@Base 0.21
 _ZNSt8_Rb_treeISsSt4pairIKSsSsESt10_Select1stIS2_ESt4lessISsESaIS2_EE10_M_insert_EPSt18_Rb_tree_node_baseSA_RKS2_@Base 0.21
 _ZNSt8_Rb_treeISsSt4pairIKSsSsESt10_Select1stIS2_ESt4lessISsESaIS2_EE24_M_get_insert_unique_posERS1_@Base 0.21
 _ZNSt8_Rb_treeISsSt4pairIKSsSsESt10_Select1stIS2_ESt4lessISsESaIS2_EE29_M_get_insert_hint_unique_posESt23_Rb_tree_const_iteratorIS2_ERS1_@Base 0.21
 _ZNSt8_Rb_treeISsSt4pairIKSsSsESt10_Select1stIS2_ESt4lessISsESaIS2_EE8_M_eraseEPSt13_Rb_tree_nodeIS2_E@Base 0.21
 _ZStplIcSt11char_traitsIcESaIcEESbIT_T0_T1_EPKS3_RKS6_@Base 0.21
 _ZStplIcSt11char_traitsIcESaIcEESbIT_T0_T1_ERKS6_PKS3_@Base 0.21
 _ZTIN3atf11application11usage_errorE@Base 0.21
 _ZTIN3atf11application3appE@Base 0.21
 _ZTIN3atf12system_errorE@Base 0.21
 _ZTIN3atf5tests2tcE@Base 0.21
 _ZTSN3atf11application11usage_errorE@Base 0.21
 _ZTSN3atf11application3appE@Base 0.21
 _ZTSN3atf12system_errorE@Base 0.21
 _ZTSN3atf5tests2tcE@Base 0.21
 _ZTVN3atf11application11usage_errorE@Base 0.21
 _ZTVN3atf11application3appE@Base 0.21
 _ZTVN3atf12system_errorE@Base 0.21
 _ZTVN3atf5tests2tcE@Base 0.21
libatf-c.so.1 libatf #MINVER#
 atf_build_c_o@Base 0.21
 atf_build_cpp@Base 0.21
 atf_build_cxx_o@Base 0.21
 atf_check_build_c_o@Base 0.21
 atf_check_build_cpp@Base 0.21
 atf_check_build_cxx_o@Base 0.21
 atf_check_exec_array@Base 0.21
 atf_check_result_exitcode@Base 0.21
 atf_check_result_exited@Base 0.21
 atf_check_result_fini@Base 0.21
 atf_check_result_signaled@Base 0.21
 atf_check_result_stderr@Base 0.21
 atf_check_result_stdout@Base 0.21
 atf_check_result_termsig@Base 0.21
 atf_dynstr_append_ap@Base 0.21
 atf_dynstr_append_fmt@Base 0.21
 atf_dynstr_clear@Base 0.21
 atf_dynstr_copy@Base 0.21
 atf_dynstr_cstring@Base 0.21
 atf_dynstr_fini@Base 0.21
 atf_dynstr_fini_disown@Base 0.21
 atf_dynstr_init@Base 0.21
 atf_dynstr_init_ap@Base 0.21
 atf_dynstr_init_fmt@Base 0.21
 atf_dynstr_init_raw@Base 0.21
 atf_dynstr_init_rep@Base 0.21
 atf_dynstr_init_substr@Base 0.21
 atf_dynstr_length@Base 0.21
 atf_dynstr_npos@Base 0.21
 atf_dynstr_prepend_ap@Base 0.21
 atf_dynstr_prepend_fmt@Base 0.21
 atf_dynstr_rfind_ch@Base 0.21
 atf_env_get@Base 0.21
 atf_env_get_with_default@Base 0.21
 atf_env_has@Base 0.21
 atf_env_set@Base 0.21
 atf_env_unset@Base 0.21
 atf_equal_dynstr_cstring@Base 0.21
 atf_equal_dynstr_dynstr@Base 0.21
 atf_equal_fs_path_fs_path@Base 0.21
 atf_equal_list_citer_list_citer@Base 0.21
 atf_equal_list_iter_list_iter@Base 0.21
 atf_equal_map_citer_map_citer@Base 0.21
 atf_equal_map_iter_map_iter@Base 0.21
 atf_error_data@Base 0.21
 atf_error_format@Base 0.21
 atf_error_free@Base 0.21
 atf_error_is@Base 0.21
 atf_error_new@Base 0.21
 atf_fs_access_f@Base 0.21
 atf_fs_access_r@Base 0.21
 atf_fs_access_w@Base 0.21
 atf_fs_access_x@Base 0.21
 atf_fs_eaccess@Base 0.21
 atf_fs_exists@Base 0.21
 atf_fs_getcwd@Base 0.21
 atf_fs_mkdtemp@Base 0.21
 atf_fs_mkstemp@Base 0.21
 atf_fs_path_append_ap@Base 0.21
 atf_fs_path_append_fmt@Base 0.21
 atf_fs_path_append_path@Base 0.21
 atf_fs_path_branch_path@Base 0.21
 atf_fs_path_copy@Base 0.21
 atf_fs_path_cstring@Base 0.21
 atf_fs_path_fini@Base 0.21
 atf_fs_path_init_ap@Base 0.21
 atf_fs_path_init_fmt@Base 0.21
 atf_fs_path_is_absolute@Base 0.21
 atf_fs_path_is_root@Base 0.21
 atf_fs_path_leaf_name@Base 0.21
 atf_fs_path_to_absolute@Base 0.21
 atf_fs_rmdir@Base 0.21
 atf_fs_stat_blk_type@Base 0.21
 atf_fs_stat_chr_type@Base 0.21
 atf_fs_stat_copy@Base 0.21
 atf_fs_stat_dir_type@Base 0.21
 atf_fs_stat_fifo_type@Base 0.21
 atf_fs_stat_fini@Base 0.21
 atf_fs_stat_get_device@Base 0.21
 atf_fs_stat_get_inode@Base 0.21
 atf_fs_stat_get_mode@Base 0.21
 atf_fs_stat_get_size@Base 0.21
 atf_fs_stat_get_type@Base 0.21
 atf_fs_stat_init@Base 0.21
 atf_fs_stat_is_group_executable@Base 0.21
 atf_fs_stat_is_group_readable@Base 0.21
 atf_fs_stat_is_group_writable@Base 0.21
 atf_fs_stat_is_other_executable@Base 0.21
 atf_fs_stat_is_other_readable@Base 0.21
 atf_fs_stat_is_other_writable@Base 0.21
 atf_fs_stat_is_owner_executable@Base 0.21
 atf_fs_stat_is_owner_readable@Base 0.21
 atf_fs_stat_is_owner_writable@Base 0.21
 atf_fs_stat_lnk_type@Base 0.21
 atf_fs_stat_reg_type@Base 0.21
 atf_fs_stat_sock_type@Base 0.21
 atf_fs_stat_wht_type@Base 0.21
 atf_fs_unlink@Base 0.21
 atf_is_error@Base 0.21
 atf_libc_error@Base 0.21
 atf_libc_error_code@Base 0.21
 atf_libc_error_msg@Base 0.21
 atf_list_append@Base 0.21
 atf_list_append_list@Base 0.21
 atf_list_begin@Base 0.21
 atf_list_begin_c@Base 0.21
 atf_list_citer_data@Base 0.21
 atf_list_citer_next@Base 0.21
 atf_list_end@Base 0.21
 atf_list_end_c@Base 0.21
 atf_list_fini@Base 0.21
 atf_list_index@Base 0.21
 atf_list_index_c@Base 0.21
 atf_list_init@Base 0.21
 atf_list_iter_data@Base 0.21
 atf_list_iter_next@Base 0.21
 atf_list_size@Base 0.21
 atf_list_to_charpp@Base 0.21
 atf_map_begin@Base 0.21
 atf_map_begin_c@Base 0.21
 atf_map_citer_data@Base 0.21
 atf_map_citer_key@Base 0.21
 atf_map_citer_next@Base 0.21
 atf_map_end@Base 0.21
 atf_map_end_c@Base 0.21
 atf_map_find@Base 0.21
 atf_map_find_c@Base 0.21
 atf_map_fini@Base 0.21
 atf_map_init@Base 0.21
 atf_map_init_charpp@Base 0.21
 atf_map_insert@Base 0.21
 atf_map_iter_data@Base 0.21
 atf_map_iter_key@Base 0.21
 atf_map_iter_next@Base 0.21
 atf_map_size@Base 0.21
 atf_map_to_charpp@Base 0.21
 atf_no_error@Base 0.21
 atf_no_memory_error@Base 0.21
 atf_process_child_pid@Base 0.21
 atf_process_child_stderr@Base 0.21
 atf_process_child_stdout@Base 0.21
 atf_process_child_wait@Base 0.21
 atf_process_exec_array@Base 0.21
 atf_process_exec_list@Base 0.21
 atf_process_fork@Base 0.21
 atf_process_status_coredump@Base 0.21
 atf_process_status_exited@Base 0.21
 atf_process_status_exitstatus@Base 0.21
 atf_process_status_fini@Base 0.21
 atf_process_status_init@Base 0.21
 atf_process_status_signaled@Base 0.21
 atf_process_status_termsig@Base 0.21
 atf_process_stream_fini@Base 0.21
 atf_process_stream_init_capture@Base 0.21
 atf_process_stream_init_connect@Base 0.21
 atf_process_stream_init_inherit@Base 0.21
 atf_process_stream_init_redirect_fd@Base 0.21
 atf_process_stream_init_redirect_path@Base 0.21
 atf_process_stream_type@Base 0.21
 atf_process_stream_type_capture@Base 0.21
 atf_process_stream_type_connect@Base 0.21
 atf_process_stream_type_inherit@Base 0.21
 atf_process_stream_type_redirect_fd@Base 0.21
 atf_process_stream_type_redirect_path@Base 0.21
 atf_sanity_inv@Base 0.21
 atf_sanity_post@Base 0.21
 atf_sanity_pre@Base 0.21
 atf_tc_check_errno@Base 0.21
 atf_tc_cleanup@Base 0.21
 atf_tc_expect_death@Base 0.21
 atf_tc_expect_exit@Base 0.21
 atf_tc_expect_fail@Base 0.21
 atf_tc_expect_pass@Base 0.21
 atf_tc_expect_signal@Base 0.21
 atf_tc_expect_timeout@Base 0.21
 atf_tc_fail@Base 0.21
 atf_tc_fail_check@Base 0.21
 atf_tc_fail_nonfatal@Base 0.21
 atf_tc_fail_requirement@Base 0.21
 atf_tc_fini@Base 0.21
 atf_tc_get_config_var@Base 0.21
 atf_tc_get_config_var_as_bool@Base 0.21
 atf_tc_get_config_var_as_bool_wd@Base 0.21
 atf_tc_get_config_var_as_long@Base 0.21
 atf_tc_get_config_var_as_long_wd@Base 0.21
 atf_tc_get_config_var_wd@Base 0.21
 atf_tc_get_ident@Base 0.21
 atf_tc_get_md_var@Base 0.21
 atf_tc_get_md_vars@Base 0.21
 atf_tc_has_config_var@Base 0.21
 atf_tc_has_md_var@Base 0.21
 atf_tc_init@Base 0.21
 atf_tc_init_pack@Base 0.21
 atf_tc_pass@Base 0.21
 atf_tc_require_errno@Base 0.21
 atf_tc_require_prog@Base 0.21
 atf_tc_run@Base 0.21
 atf_tc_set_md_var@Base 0.21
 atf_tc_skip@Base 0.21
 atf_text_for_each_word@Base 0.21
 atf_text_format@Base 0.21
 atf_text_format_ap@Base 0.21
 atf_text_split@Base 0.21
 atf_text_to_bool@Base 0.21
 atf_text_to_long@Base 0.21
 atf_tp_add_tc@Base 0.21
 atf_tp_cleanup@Base 0.21
 atf_tp_fini@Base 0.21
 atf_tp_get_config@Base 0.21
 atf_tp_get_tc@Base 0.21
 atf_tp_get_tcs@Base 0.21
 atf_tp_has_tc@Base 0.21
 atf_tp_init@Base 0.21
 atf_tp_main@Base 0.21
 atf_tp_run@Base 0.21
 atf_user_euid@Base 0.21
 atf_user_is_member_of_group@Base 0.21
 atf_user_is_root@Base 0.21
 atf_user_is_unprivileged@Base 0.21
 atf_utils_cat_file@Base 0.21
 atf_utils_compare_file@Base 0.21
 atf_utils_copy_file@Base 0.21
 atf_utils_create_file@Base 0.21
 atf_utils_file_exists@Base 0.21
 atf_utils_fork@Base 0.21
 atf_utils_free_charpp@Base 0.21
 atf_utils_grep_file@Base 0.21
 atf_utils_grep_string@Base 0.21
 atf_utils_readline@Base 0.21
 atf_utils_redirect@Base 0.21
 atf_utils_wait@Base 0.21
